target datalayout = "e-m:e-p270:32:32-p271:32:32-p272:64:64-i64:64-i128:128-f80:128-n8:16:32:64-S128"
target triple = "x86_64-pc-linux-gnu"

%struct.FunctionCallInfoBaseData = type { ptr, ptr, ptr, i32, i8, i16, [0 x %struct.NullableDatum] }
%struct.NullableDatum = type { i64, i8 }
%struct.spgChooseIn = type { i64, i64, i32, i8, i8, i64, i32, ptr }
%struct.spgChooseOut = type { i32, %union.anon }
%union.anon = type { %struct.anon.1 }
%struct.anon.1 = type { i8, i64, i32, ptr, i32, i8, i64 }
%struct.anon = type { i32, i32, i64 }
%struct.BOX = type { %struct.Point, %struct.Point }
%struct.Point = type { double, double }

; Function Attrs: inlinehint nounwind uwtable
define internal i64 @PointerGetDatum(ptr noundef %0) #2 {
  %2 = alloca ptr, align 8
  store ptr %0, ptr %2, align 8
  %3 = load ptr, ptr %2, align 8
  %4 = ptrtoint ptr %3 to i64
  ret i64 %4
}

; Function Attrs: nounwind uwtable
define internal zeroext i8 @getQuadrant(ptr noundef %0, ptr noundef %1) #0 {
  %3 = alloca ptr, align 8
  %4 = alloca ptr, align 8
  %5 = alloca i8, align 1
  store ptr %0, ptr %3, align 8
  store ptr %1, ptr %4, align 8
  call void @llvm.lifetime.start.p0(i64 1, ptr %5) #6
  store i8 0, ptr %5, align 1
  %6 = load ptr, ptr %4, align 8
  %7 = getelementptr inbounds nuw %struct.BOX, ptr %6, i32 0, i32 1
  %8 = getelementptr inbounds nuw %struct.Point, ptr %7, i32 0, i32 0
  %9 = load double, ptr %8, align 8
  %10 = load ptr, ptr %3, align 8
  %11 = getelementptr inbounds nuw %struct.BOX, ptr %10, i32 0, i32 1
  %12 = getelementptr inbounds nuw %struct.Point, ptr %11, i32 0, i32 0
  %13 = load double, ptr %12, align 8
  %14 = fcmp ogt double %9, %13
  br i1 %14, label %15, label %20

15:                                               ; preds = %2
  %16 = load i8, ptr %5, align 1
  %17 = zext i8 %16 to i32
  %18 = or i32 %17, 8
  %19 = trunc i32 %18 to i8
  store i8 %19, ptr %5, align 1
  br label %20

20:                                               ; preds = %15, %2
  %21 = load ptr, ptr %4, align 8
  %22 = getelementptr inbounds nuw %struct.BOX, ptr %21, i32 0, i32 0
  %23 = getelementptr inbounds nuw %struct.Point, ptr %22, i32 0, i32 0
  %24 = load double, ptr %23, align 8
  %25 = load ptr, ptr %3, align 8
  %26 = getelementptr inbounds nuw %struct.BOX, ptr %25, i32 0, i32 0
  %27 = getelementptr inbounds nuw %struct.Point, ptr %26, i32 0, i32 0
  %28 = load double, ptr %27, align 8
  %29 = fcmp ogt double %24, %28
  br i1 %29, label %30, label %35

30:                                               ; preds = %20
  %31 = load i8, ptr %5, align 1
  %32 = zext i8 %31 to i32
  %33 = or i32 %32, 4
  %34 = trunc i32 %33 to i8
  store i8 %34, ptr %5, align 1
  br label %35

35:                                               ; preds = %30, %20
  %36 = load ptr, ptr %4, align 8
  %37 = getelementptr inbounds nuw %struct.BOX, ptr %36, i32 0, i32 1
  %38 = getelementptr inbounds nuw %struct.Point, ptr %37, i32 0, i32 1
  %39 = load double, ptr %38, align 8
  %40 = load ptr, ptr %3, align 8
  %41 = getelementptr inbounds nuw %struct.BOX, ptr %40, i32 0, i32 1
  %42 = getelementptr inbounds nuw %struct.Point, ptr %41, i32 0, i32 1
  %43 = load double, ptr %42, align 8
  %44 = fcmp ogt double %39, %43
  br i1 %44, label %45, label %50

45:                                               ; preds = %35
  %46 = load i8, ptr %5, align 1
  %47 = zext i8 %46 to i32
  %48 = or i32 %47, 2
  %49 = trunc i32 %48 to i8
  store i8 %49, ptr %5, align 1
  br label %50

50:                                               ; preds = %45, %35
  %51 = load ptr, ptr %4, align 8
  %52 = getelementptr inbounds nuw %struct.BOX, ptr %51, i32 0, i32 0
  %53 = getelementptr inbounds nuw %struct.Point, ptr %52, i32 0, i32 1
  %54 = load double, ptr %53, align 8
  %55 = load ptr, ptr %3, align 8
  %56 = getelementptr inbounds nuw %struct.BOX, ptr %55, i32 0, i32 0
  %57 = getelementptr inbounds nuw %struct.Point, ptr %56, i32 0, i32 1
  %58 = load double, ptr %57, align 8
  %59 = fcmp ogt double %54, %58
  br i1 %59, label %60, label %65

60:                                               ; preds = %50
  %61 = load i8, ptr %5, align 1
  %62 = zext i8 %61 to i32
  %63 = or i32 %62, 1
  %64 = trunc i32 %63 to i8
  store i8 %64, ptr %5, align 1
  br label %65

65:                                               ; preds = %60, %50
  %66 = load i8, ptr %5, align 1
  call void @llvm.lifetime.end.p0(i64 1, ptr %5) #6
  ret i8 %66
}

; Function Attrs: inlinehint nounwind uwtable
define internal i64 @BoxPGetDatum(ptr noundef %0) #2 {
  %2 = alloca ptr, align 8
  store ptr %0, ptr %2, align 8
  %3 = load ptr, ptr %2, align 8
  %4 = call i64 @PointerGetDatum(ptr noundef %3)
  ret i64 %4
}

; Function Attrs: inlinehint nounwind uwtable
define internal ptr @DatumGetBoxP(i64 noundef %0) #2 {
  %2 = alloca i64, align 8
  store i64 %0, ptr %2, align 8
  %3 = load i64, ptr %2, align 8
  %4 = call ptr @DatumGetPointer(i64 noundef %3)
  ret ptr %4
}

; Function Attrs: inlinehint nounwind uwtable
define internal ptr @DatumGetPointer(i64 noundef %0) #2 {
  %2 = alloca i64, align 8
  store i64 %0, ptr %2, align 8
  %3 = load i64, ptr %2, align 8
  %4 = inttoptr i64 %3 to ptr
  ret ptr %4
}

; Function Attrs: nounwind uwtable
define dso_local i64 @spg_box_quad_choose(ptr noundef %0) #0 {
  %2 = alloca ptr, align 8
  %3 = alloca ptr, align 8
  %4 = alloca ptr, align 8
  %5 = alloca ptr, align 8
  %6 = alloca ptr, align 8
  store ptr %0, ptr %2, align 8
  call void @llvm.lifetime.start.p0(i64 8, ptr %3) #6
  %7 = load ptr, ptr %2, align 8
  %8 = getelementptr inbounds nuw %struct.FunctionCallInfoBaseData, ptr %7, i32 0, i32 6
  %9 = getelementptr inbounds [0 x %struct.NullableDatum], ptr %8, i64 0, i64 0
  %10 = getelementptr inbounds nuw %struct.NullableDatum, ptr %9, i32 0, i32 0
  %11 = load i64, ptr %10, align 8
  %12 = call ptr @DatumGetPointer(i64 noundef %11)
  store ptr %12, ptr %3, align 8
  call void @llvm.lifetime.start.p0(i64 8, ptr %4) #6
  %13 = load ptr, ptr %2, align 8
  %14 = getelementptr inbounds nuw %struct.FunctionCallInfoBaseData, ptr %13, i32 0, i32 6
  %15 = getelementptr inbounds [0 x %struct.NullableDatum], ptr %14, i64 0, i64 1
  %16 = getelementptr inbounds nuw %struct.NullableDatum, ptr %15, i32 0, i32 0
  %17 = load i64, ptr %16, align 8
  %18 = call ptr @DatumGetPointer(i64 noundef %17)
  store ptr %18, ptr %4, align 8
  call void @llvm.lifetime.start.p0(i64 8, ptr %5) #6
  %19 = load ptr, ptr %3, align 8
  %20 = getelementptr inbounds nuw %struct.spgChooseIn, ptr %19, i32 0, i32 5
  %21 = load i64, ptr %20, align 8
  %22 = call ptr @DatumGetBoxP(i64 noundef %21)
  store ptr %22, ptr %5, align 8
  call void @llvm.lifetime.start.p0(i64 8, ptr %6) #6
  %23 = load ptr, ptr %3, align 8
  %24 = getelementptr inbounds nuw %struct.spgChooseIn, ptr %23, i32 0, i32 1
  %25 = load i64, ptr %24, align 8
  %26 = call ptr @DatumGetBoxP(i64 noundef %25)
  store ptr %26, ptr %6, align 8
  %27 = load ptr, ptr %4, align 8
  %28 = getelementptr inbounds nuw %struct.spgChooseOut, ptr %27, i32 0, i32 0
  store i32 1, ptr %28, align 8
  %29 = load ptr, ptr %6, align 8
  %30 = call i64 @BoxPGetDatum(ptr noundef %29)
  %31 = load ptr, ptr %4, align 8
  %32 = getelementptr inbounds nuw %struct.spgChooseOut, ptr %31, i32 0, i32 1
  %33 = getelementptr inbounds nuw %struct.anon, ptr %32, i32 0, i32 2
  store i64 %30, ptr %33, align 8
  %34 = load ptr, ptr %3, align 8
  %35 = getelementptr inbounds nuw %struct.spgChooseIn, ptr %34, i32 0, i32 3
  %36 = load i8, ptr %35, align 4, !range !4, !noundef !5
  %37 = trunc i8 %36 to i1
  br i1 %37, label %46, label %38

38:                                               ; preds = %1
  %39 = load ptr, ptr %5, align 8
  %40 = load ptr, ptr %6, align 8
  %41 = call zeroext i8 @getQuadrant(ptr noundef %39, ptr noundef %40)
  %42 = zext i8 %41 to i32
  %43 = load ptr, ptr %4, align 8
  %44 = getelementptr inbounds nuw %struct.spgChooseOut, ptr %43, i32 0, i32 1
  %45 = getelementptr inbounds nuw %struct.anon, ptr %44, i32 0, i32 0
  store i32 %42, ptr %45, align 8
  br label %46

46:                                               ; preds = %38, %1
  call void @llvm.lifetime.end.p0(i64 8, ptr %6) #6
  call void @llvm.lifetime.end.p0(i64 8, ptr %5) #6
  call void @llvm.lifetime.end.p0(i64 8, ptr %4) #6
  call void @llvm.lifetime.end.p0(i64 8, ptr %3) #6
  ret i64 0
}