; Function Attrs: mustprogress nofree norecurse nosync nounwind willreturn memory(readwrite, inaccessiblemem: none) uwtable
define dso_local noundef i64 @spg_box_quad_choose(ptr noundef readonly captures(none) %0) local_unnamed_addr #1 {
  %2 = getelementptr inbounds nuw i8, ptr %0, i64 32
  %3 = load i64, ptr %2, align 8
  %4 = inttoptr i64 %3 to ptr
  %5 = getelementptr inbounds nuw i8, ptr %0, i64 48
  %6 = load i64, ptr %5, align 8
  %7 = inttoptr i64 %6 to ptr
  %8 = getelementptr inbounds nuw i8, ptr %4, i64 24
  %9 = load i64, ptr %8, align 8
  %10 = getelementptr inbounds nuw i8, ptr %4, i64 8
  %11 = load i64, ptr %10, align 8
  store i32 1, ptr %7, align 8
  %12 = getelementptr inbounds nuw i8, ptr %7, i64 16
  store i64 %11, ptr %12, align 8
  %13 = getelementptr inbounds nuw i8, ptr %4, i64 20
  %14 = load i8, ptr %13, align 4, !range !4, !noundef !5
  %15 = trunc nuw i8 %14 to i1
  br i1 %15, label %42, label %16

16:                                               ; preds = %1
  %17 = inttoptr i64 %11 to ptr
  %18 = inttoptr i64 %9 to ptr
  %19 = getelementptr inbounds nuw i8, ptr %7, i64 8
  %20 = getelementptr inbounds nuw i8, ptr %17, i64 16
  %21 = load double, ptr %20, align 8
  %22 = getelementptr inbounds nuw i8, ptr %18, i64 16
  %23 = load double, ptr %22, align 8
  %24 = fcmp ogt double %21, %23
  %.0.i = select i1 %24, i8 8, i8 0
  %25 = load double, ptr %17, align 8
  %26 = load double, ptr %18, align 8
  %27 = fcmp ogt double %25, %26
  %28 = or disjoint i8 %.0.i, 4
  %.1.i = select i1 %27, i8 %28, i8 %.0.i
  %29 = getelementptr inbounds nuw i8, ptr %17, i64 24
  %30 = load double, ptr %29, align 8
  %31 = getelementptr inbounds nuw i8, ptr %18, i64 24
  %32 = load double, ptr %31, align 8
  %33 = fcmp ogt double %30, %32
  %34 = or disjoint i8 %.1.i, 2
  %.2.i = select i1 %33, i8 %34, i8 %.1.i
  %35 = getelementptr inbounds nuw i8, ptr %17, i64 8
  %36 = load double, ptr %35, align 8
  %37 = getelementptr inbounds nuw i8, ptr %18, i64 8
  %38 = load double, ptr %37, align 8
  %39 = fcmp ogt double %36, %38
  %40 = zext i1 %39 to i8
  %.3.i = or disjoint i8 %.2.i, %40
  %41 = zext nneg i8 %.3.i to i32
  store i32 %41, ptr %19, align 8
  br label %42

42:                                               ; preds = %16, %1
  ret i64 0
}